; Function Attrs: nounwind uwtable
define void @Tas_ManSatPrintStats(ptr noundef readonly captures(none) %0) local_unnamed_addr #9 {
  %2 = getelementptr inbounds nuw i8, ptr %0, i64 56
  %3 = load ptr, ptr %2, align 8, !tbaa !17
  %4 = getelementptr i8, ptr %3, i64 72
  %.val = load ptr, ptr %4, align 8, !tbaa !123
  %5 = getelementptr i8, ptr %.val, i64 4
  %.val.val = load i32, ptr %5, align 4, !tbaa !38
  %6 = tail call i32 (ptr, ...) @printf(ptr noundef nonnull dereferenceable(1) @.str, i32 noundef %.val.val)
  %7 = load ptr, ptr %2, align 8, !tbaa !17
  %8 = getelementptr inbounds nuw i8, ptr %7, i64 24
  %9 = load i32, ptr %8, align 8, !tbaa !52
  %10 = getelementptr inbounds nuw i8, ptr %7, i64 64
  %11 = load ptr, ptr %10, align 8, !tbaa !124
  %12 = getelementptr i8, ptr %11, i64 4
  %.val3.i = load i32, ptr %12, align 4, !tbaa !38
  %13 = getelementptr inbounds nuw i8, ptr %7, i64 72
  %14 = load ptr, ptr %13, align 8, !tbaa !123
  %15 = getelementptr i8, ptr %14, i64 4
  %.val.i = load i32, ptr %15, align 4, !tbaa !38
  %16 = add i32 %.val.i, %.val3.i
  %17 = xor i32 %16, -1
  %18 = add i32 %9, %17
  %19 = tail call i32 (ptr, ...) @printf(ptr noundef nonnull dereferenceable(1) @.str.1, i32 noundef %18)
  %20 = load i32, ptr %0, align 8, !tbaa !29
  %21 = tail call i32 (ptr, ...) @printf(ptr noundef nonnull dereferenceable(1) @.str.2, i32 noundef %20)
  %22 = getelementptr inbounds nuw i8, ptr %0, i64 4
  %23 = load i32, ptr %22, align 4, !tbaa !90
  %24 = tail call i32 (ptr, ...) @printf(ptr noundef nonnull dereferenceable(1) @.str.3, i32 noundef %23)
  %putchar = tail call i32 @putchar(i32 10)
  %25 = getelementptr inbounds nuw i8, ptr %0, i64 224
  %26 = load i32, ptr %25, align 8, !tbaa !125
  %27 = getelementptr inbounds nuw i8, ptr %0, i64 236
  %28 = load i32, ptr %27, align 4, !tbaa !126
  %.not = icmp eq i32 %28, 0
  %29 = sitofp i32 %26 to double
  %30 = fmul double %29, 1.000000e+02
  %31 = sitofp i32 %28 to double
  %32 = fdiv double %30, %31
  %33 = select i1 %.not, double 0.000000e+00, double %32
  %.not46 = icmp eq i32 %26, 0
  br i1 %.not46, label %39, label %34

34:                                               ; preds = %1
  %35 = getelementptr inbounds nuw i8, ptr %0, i64 240
  %36 = load i32, ptr %35, align 8, !tbaa !127
  %37 = sitofp i32 %36 to double
  %38 = fdiv double %37, %29
  br label %39

39:                                               ; preds = %1, %34
  %40 = phi double [ %38, %34 ], [ 0.000000e+00, %1 ]
  %41 = tail call i32 (ptr, ...) @printf(ptr noundef nonnull dereferenceable(1) @.str.5, i32 noundef %26, double noundef %33, double noundef %40)
  tail call void (i32, ptr, ...) @Abc_Print(i32 poison, ptr noundef nonnull @.str.6, ptr noundef nonnull @.str.7)
  %42 = getelementptr inbounds nuw i8, ptr %0, i64 256
  %43 = load i64, ptr %42, align 8, !tbaa !128
  %44 = sitofp i64 %43 to double
  %45 = fdiv double %44, 1.000000e+06
  %46 = getelementptr inbounds nuw i8, ptr %0, i64 280
  %47 = load i64, ptr %46, align 8, !tbaa !129
  %.not47 = icmp eq i64 %47, 0
  %48 = sitofp i64 %47 to double
  %49 = fmul double %44, 1.000000e+02
  %50 = fdiv double %49, %48
  %51 = select i1 %.not47, double 0.000000e+00, double %50
  tail call void (i32, ptr, ...) @Abc_Print(i32 poison, ptr noundef nonnull @.str.8, double noundef %45, double noundef %51)
  %52 = getelementptr inbounds nuw i8, ptr %0, i64 228
  %53 = load i32, ptr %52, align 4, !tbaa !130
  %54 = load i32, ptr %27, align 4, !tbaa !126
  %.not48 = icmp eq i32 %54, 0
  %55 = sitofp i32 %53 to double
  %56 = fmul double %55, 1.000000e+02
  %57 = sitofp i32 %54 to double
  %58 = fdiv double %56, %57
  %59 = select i1 %.not48, double 0.000000e+00, double %58
  %.not49 = icmp eq i32 %53, 0
  br i1 %.not49, label %65, label %60

60:                                               ; preds = %39
  %61 = getelementptr inbounds nuw i8, ptr %0, i64 244
  %62 = load i32, ptr %61, align 4, !tbaa !131
  %63 = sitofp i32 %62 to double
  %64 = fdiv double %63, %55
  br label %65

65:                                               ; preds = %39, %60
  %66 = phi double [ %64, %60 ], [ 0.000000e+00, %39 ]
  %67 = tail call i32 (ptr, ...) @printf(ptr noundef nonnull dereferenceable(1) @.str.9, i32 noundef %53, double noundef %59, double noundef %66)
  tail call void (i32, ptr, ...) @Abc_Print(i32 poison, ptr noundef nonnull @.str.6, ptr noundef nonnull @.str.7)
  %68 = getelementptr inbounds nuw i8, ptr %0, i64 264
  %69 = load i64, ptr %68, align 8, !tbaa !132
  %70 = sitofp i64 %69 to double
  %71 = fdiv double %70, 1.000000e+06
  %72 = load i64, ptr %46, align 8, !tbaa !129
  %.not50 = icmp eq i64 %72, 0
  %73 = sitofp i64 %72 to double
  %74 = fmul double %70, 1.000000e+02
  %75 = fdiv double %74, %73
  %76 = select i1 %.not50, double 0.000000e+00, double %75
  tail call void (i32, ptr, ...) @Abc_Print(i32 poison, ptr noundef nonnull @.str.8, double noundef %71, double noundef %76)
  %77 = getelementptr inbounds nuw i8, ptr %0, i64 232
  %78 = load i32, ptr %77, align 8, !tbaa !133
  %79 = load i32, ptr %27, align 4, !tbaa !126
  %80 = sitofp i32 %78 to double
  %.not52 = icmp eq i32 %78, 0
  br i1 %.not52, label %86, label %81

81:                                               ; preds = %65
  %82 = getelementptr inbounds nuw i8, ptr %0, i64 248
  %83 = load i32, ptr %82, align 8, !tbaa !134
  %84 = sitofp i32 %83 to double
  %85 = fdiv double %84, %80
  br label %86

86:                                               ; preds = %65, %81
  %87 = phi double [ %85, %81 ], [ 0.000000e+00, %65 ]
  %.not51 = icmp eq i32 %79, 0
  %88 = fmul double %80, 1.000000e+02
  %89 = sitofp i32 %79 to double
  %90 = fdiv double %88, %89
  %91 = select i1 %.not51, double 0.000000e+00, double %90
  %92 = tail call i32 (ptr, ...) @printf(ptr noundef nonnull dereferenceable(1) @.str.10, i32 noundef %78, double noundef %91, double noundef %87)
  tail call void (i32, ptr, ...) @Abc_Print(i32 poison, ptr noundef nonnull @.str.6, ptr noundef nonnull @.str.7)
  %93 = getelementptr inbounds nuw i8, ptr %0, i64 272
  %94 = load i64, ptr %93, align 8, !tbaa !135
  %95 = sitofp i64 %94 to double
  %96 = load i64, ptr %46, align 8, !tbaa !129
  %.not53 = icmp eq i64 %96, 0
  %97 = sitofp i64 %96 to double
  %98 = fmul double %95, 1.000000e+02
  %99 = fdiv double %98, %97
  %100 = select i1 %.not53, double 0.000000e+00, double %99
  %101 = fdiv double %95, 1.000000e+06
  tail call void (i32, ptr, ...) @Abc_Print(i32 poison, ptr noundef nonnull @.str.8, double noundef %101, double noundef %100)
  tail call void (i32, ptr, ...) @Abc_Print(i32 poison, ptr noundef nonnull @.str.6, ptr noundef nonnull @.str.11)
  %102 = load i64, ptr %46, align 8, !tbaa !129
  %103 = sitofp i64 %102 to double
  %104 = fdiv double %103, 1.000000e+06
  tail call void (i32, ptr, ...) @Abc_Print(i32 poison, ptr noundef nonnull @.str.12, double noundef %104)
  ret void
}